; ModuleID = '49/1076.c'
source_filename = "49/1076.c"
target datalayout = "e-m:e-p270:32:32-p271:32:32-p272:64:64-i64:64-f80:128-n8:16:32:64-S128"
target triple = "x86_64-pc-linux-gnu"

@.str = private unnamed_addr constant [3 x i8] c"%s\00", align 1
@.str.1 = private unnamed_addr constant [3 x i8] c"%c\00", align 1
@.str.2 = private unnamed_addr constant [2 x i8] c"\0A\00", align 1

; Function Attrs: noinline nounwind uwtable
define dso_local i32 @main() #0 {
  %1 = alloca i32, align 4
  %2 = alloca [500 x i8], align 16
  %3 = alloca i32, align 4
  %4 = alloca i32, align 4
  %5 = alloca i32, align 4
  %6 = alloca i32, align 4
  %7 = alloca i32, align 4
  store i32 0, i32* %1, align 4
  store i32 2, i32* %5, align 4
  %8 = getelementptr inbounds [500 x i8], [500 x i8]* %2, i64 0, i64 0
  %9 = call i32 (i8*, ...) @__isoc99_scanf(i8* getelementptr inbounds ([3 x i8], [3 x i8]* @.str, i64 0, i64 0), i8* %8)
  %10 = getelementptr inbounds [500 x i8], [500 x i8]* %2, i64 0, i64 0
  %11 = call i64 @strlen(i8* %10) #3
  %12 = trunc i64 %11 to i32
  store i32 %12, i32* %3, align 4
  br label %13

13:                                               ; preds = %99, %0
  %14 = load i32, i32* %5, align 4
  %15 = load i32, i32* %3, align 4
  %16 = icmp sle i32 %14, %15
  br i1 %16, label %17, label %102

17:                                               ; preds = %13
  %18 = load i32, i32* %5, align 4
  %19 = srem i32 %18, 2
  %20 = icmp ne i32 %19, 0
  br i1 %20, label %21, label %25

21:                                               ; preds = %17
  %22 = load i32, i32* %5, align 4
  %23 = add nsw i32 %22, 1
  %24 = sdiv i32 %23, 2
  store i32 %24, i32* %7, align 4
  br label %28

25:                                               ; preds = %17
  %26 = load i32, i32* %5, align 4
  %27 = sdiv i32 %26, 2
  store i32 %27, i32* %7, align 4
  br label %28

28:                                               ; preds = %25, %21
  store i32 0, i32* %6, align 4
  br label %29

29:                                               ; preds = %95, %28
  %30 = load i32, i32* %6, align 4
  %31 = load i32, i32* %3, align 4
  %32 = load i32, i32* %5, align 4
  %33 = sub nsw i32 %31, %32
  %34 = icmp sle i32 %30, %33
  br i1 %34, label %35, label %98

35:                                               ; preds = %29
  %36 = load i32, i32* %6, align 4
  store i32 %36, i32* %4, align 4
  br label %37

37:                                               ; preds = %64, %35
  %38 = load i32, i32* %4, align 4
  %39 = load i32, i32* %7, align 4
  %40 = load i32, i32* %6, align 4
  %41 = add nsw i32 %39, %40
  %42 = sub nsw i32 %41, 1
  %43 = icmp sle i32 %38, %42
  br i1 %43, label %44, label %67

44:                                               ; preds = %37
  %45 = load i32, i32* %4, align 4
  %46 = sext i32 %45 to i64
  %47 = getelementptr inbounds [500 x i8], [500 x i8]* %2, i64 0, i64 %46
  %48 = load i8, i8* %47, align 1
  %49 = sext i8 %48 to i32
  %50 = load i32, i32* %5, align 4
  %51 = load i32, i32* %6, align 4
  %52 = mul nsw i32 2, %51
  %53 = add nsw i32 %50, %52
  %54 = sub nsw i32 %53, 1
  %55 = load i32, i32* %4, align 4
  %56 = sub nsw i32 %54, %55
  %57 = sext i32 %56 to i64
  %58 = getelementptr inbounds [500 x i8], [500 x i8]* %2, i64 0, i64 %57
  %59 = load i8, i8* %58, align 1
  %60 = sext i8 %59 to i32
  %61 = icmp ne i32 %49, %60
  br i1 %61, label %62, label %63

62:                                               ; preds = %44
  br label %67

63:                                               ; preds = %44
  br label %64

64:                                               ; preds = %63
  %65 = load i32, i32* %4, align 4
  %66 = add nsw i32 %65, 1
  store i32 %66, i32* %4, align 4
  br label %37

67:                                               ; preds = %62, %37
  %68 = load i32, i32* %4, align 4
  %69 = load i32, i32* %7, align 4
  %70 = load i32, i32* %6, align 4
  %71 = add nsw i32 %69, %70
  %72 = icmp eq i32 %68, %71
  br i1 %72, label %73, label %94

73:                                               ; preds = %67
  %74 = load i32, i32* %6, align 4
  store i32 %74, i32* %4, align 4
  br label %75

75:                                               ; preds = %89, %73
  %76 = load i32, i32* %4, align 4
  %77 = load i32, i32* %5, align 4
  %78 = load i32, i32* %6, align 4
  %79 = add nsw i32 %77, %78
  %80 = sub nsw i32 %79, 1
  %81 = icmp sle i32 %76, %80
  br i1 %81, label %82, label %92

82:                                               ; preds = %75
  %83 = load i32, i32* %4, align 4
  %84 = sext i32 %83 to i64
  %85 = getelementptr inbounds [500 x i8], [500 x i8]* %2, i64 0, i64 %84
  %86 = load i8, i8* %85, align 1
  %87 = sext i8 %86 to i32
  %88 = call i32 (i8*, ...) @printf(i8* getelementptr inbounds ([3 x i8], [3 x i8]* @.str.1, i64 0, i64 0), i32 %87)
  br label %89

89:                                               ; preds = %82
  %90 = load i32, i32* %4, align 4
  %91 = add nsw i32 %90, 1
  store i32 %91, i32* %4, align 4
  br label %75

92:                                               ; preds = %75
  %93 = call i32 (i8*, ...) @printf(i8* getelementptr inbounds ([2 x i8], [2 x i8]* @.str.2, i64 0, i64 0))
  br label %94

94:                                               ; preds = %92, %67
  br label %95

95:                                               ; preds = %94
  %96 = load i32, i32* %6, align 4
  %97 = add nsw i32 %96, 1
  store i32 %97, i32* %6, align 4
  br label %29

98:                                               ; preds = %29
  br label %99

99:                                               ; preds = %98
  %100 = load i32, i32* %5, align 4
  %101 = add nsw i32 %100, 1
  store i32 %101, i32* %5, align 4
  br label %13

102:                                              ; preds = %13
  %103 = load i32, i32* %1, align 4
  ret i32 %103
}

declare dso_local i32 @__isoc99_scanf(i8*, ...) #1

; Function Attrs: nounwind readonly
declare dso_local i64 @strlen(i8*) #2

declare dso_local i32 @printf(i8*, ...) #1


!llvm.module.flags = !{!0}
!llvm.ident = !{!1}

!0 = !{i32 1, !"wchar_size", i32 4}
!1 = !{!"clang version 10.0.0-4ubuntu1 "}
